target datalayout = "e-m:e-p270:32:32-p271:32:32-p272:64:64-i64:64-i128:128-f80:128-n8:16:32:64-S128"
target triple = "x86_64-pc-linux-gnu"

; Function Attrs: inlinehint mustprogress uwtable
define internal noundef float @"_ZZN19OpenColorIO_v2_5dev11ADX_to_ACES11GenerateOpsERNS_10OpRcPtrVecEENK3$_0clEd"(ptr noundef nonnull align 1 dereferenceable(1) %0, double noundef %1) #9 align 2 {
  %3 = alloca ptr, align 8
  %4 = alloca double, align 8
  %5 = alloca double, align 8
  %6 = alloca double, align 8
  %7 = alloca double, align 8
  store ptr %0, ptr %3, align 8, !tbaa !26
  store double %1, ptr %4, align 8, !tbaa !63
  call void @llvm.lifetime.start.p0(i64 8, ptr %5) #3
  store double 0.000000e+00, ptr %5, align 8, !tbaa !63
  %8 = load double, ptr %4, align 8, !tbaa !63
  %9 = load double, ptr @_ZN19OpenColorIO_v2_5dev11ADX_to_ACESL14nonuniform_LUTE, align 16, !tbaa !63
  %10 = fcmp olt double %8, %9
  br i1 %10, label %11, label %28

11:                                               ; preds = %2
  call void @llvm.lifetime.start.p0(i64 8, ptr %6) #3
  %12 = load double, ptr getelementptr inbounds ([22 x double], ptr @_ZN19OpenColorIO_v2_5dev11ADX_to_ACESL14nonuniform_LUTE, i64 0, i64 3), align 8, !tbaa !63
  %13 = load double, ptr getelementptr inbounds ([22 x double], ptr @_ZN19OpenColorIO_v2_5dev11ADX_to_ACESL14nonuniform_LUTE, i64 0, i64 1), align 8, !tbaa !63
  %14 = fsub double %12, %13
  %15 = load double, ptr getelementptr inbounds ([22 x double], ptr @_ZN19OpenColorIO_v2_5dev11ADX_to_ACESL14nonuniform_LUTE, i64 0, i64 2), align 16, !tbaa !63
  %16 = load double, ptr @_ZN19OpenColorIO_v2_5dev11ADX_to_ACESL14nonuniform_LUTE, align 16, !tbaa !63
  %17 = fsub double %15, %16
  %18 = fdiv double %14, %17
  store double %18, ptr %6, align 8, !tbaa !63
  %19 = load double, ptr getelementptr inbounds ([22 x double], ptr @_ZN19OpenColorIO_v2_5dev11ADX_to_ACESL14nonuniform_LUTE, i64 0, i64 1), align 8, !tbaa !63
  %20 = load double, ptr @_ZN19OpenColorIO_v2_5dev11ADX_to_ACESL14nonuniform_LUTE, align 16, !tbaa !63
  %21 = load double, ptr %4, align 8, !tbaa !63
  %22 = fsub double %20, %21
  %23 = call double @llvm.fmuladd.f64(double 0xC03064333C020ECD, double %22, double %19)
  store double %23, ptr %5, align 8, !tbaa !63
  %24 = load double, ptr %5, align 8, !tbaa !63
  %25 = fcmp olt double %24, -1.000000e+01
  br i1 %25, label %26, label %27

26:                                               ; preds = %11
  store double -1.000000e+01, ptr %5, align 8, !tbaa !63
  br label %27

27:                                               ; preds = %26, %11
  call void @llvm.lifetime.end.p0(i64 8, ptr %6) #3
  br label %47

28:                                               ; preds = %2
  %29 = load double, ptr %4, align 8, !tbaa !63
  %30 = load double, ptr getelementptr inbounds nuw ([22 x double], ptr @_ZN19OpenColorIO_v2_5dev11ADX_to_ACESL14nonuniform_LUTE, i64 0, i64 20), align 16, !tbaa !63
  %31 = fcmp ole double %29, %30
  br i1 %31, label %32, label %35

32:                                               ; preds = %28
  %33 = load double, ptr %4, align 8, !tbaa !63
  %34 = call noundef double @_ZN19OpenColorIO_v2_5dev13Interpolate1DEjPKdd(i32 noundef 11, ptr noundef @_ZN19OpenColorIO_v2_5dev11ADX_to_ACESL14nonuniform_LUTE, double noundef %33)
  store double %34, ptr %5, align 8, !tbaa !63
  br label %46

35:                                               ; preds = %28
  call void @llvm.lifetime.start.p0(i64 8, ptr %7) #3
  %36 = call double @log10(double noundef 1.800000e-01) #3, !tbaa !75
  %37 = fsub double 0x3FF45D1745D1745D, %36
  store double %37, ptr %7, align 8, !tbaa !63
  %38 = load double, ptr %4, align 8, !tbaa !63
  %39 = load double, ptr %7, align 8, !tbaa !63
  %40 = fneg double %39
  %41 = call double @llvm.fmuladd.f64(double 0x3FFD1745D1745D17, double %38, double %40)
  store double %41, ptr %5, align 8, !tbaa !63
  %42 = load double, ptr %5, align 8, !tbaa !63
  %43 = fcmp ogt double %42, 0x401343DBB4C71C8A
  br i1 %43, label %44, label %45

44:                                               ; preds = %35
  store double 0x401343DBB4C71C8A, ptr %5, align 8, !tbaa !63
  br label %45

45:                                               ; preds = %44, %35
  call void @llvm.lifetime.end.p0(i64 8, ptr %7) #3
  br label %46

46:                                               ; preds = %45, %32
  br label %47

47:                                               ; preds = %46, %27
  %48 = load double, ptr %5, align 8, !tbaa !63
  %49 = fptrunc double %48 to float
  call void @llvm.lifetime.end.p0(i64 8, ptr %5) #3
  ret float %49
}

; Function Attrs: mustprogress nounwind uwtable
define linkonce_odr hidden noundef ptr @_ZNKSt9_Any_data9_M_accessEv(ptr noundef nonnull align 8 dereferenceable(16) %0) #6 comdat align 2 {
  %2 = alloca ptr, align 8
  store ptr %0, ptr %2, align 8, !tbaa !170
  %3 = load ptr, ptr %2, align 8
  %4 = getelementptr inbounds [16 x i8], ptr %3, i64 0, i64 0
  ret ptr %4
}

; Function Attrs: mustprogress uwtable
define internal noundef float @"_ZSt13__invoke_implIfRZN19OpenColorIO_v2_5dev11ADX_to_ACES11GenerateOpsERNS0_10OpRcPtrVecEE3$_0JdEET_St14__invoke_otherOT0_DpOT1_"(ptr noundef nonnull align 1 dereferenceable(1) %0, ptr noundef nonnull align 8 dereferenceable(8) %1) #4 {
  %3 = alloca ptr, align 8
  %4 = alloca ptr, align 8
  store ptr %0, ptr %3, align 8, !tbaa !26
  store ptr %1, ptr %4, align 8, !tbaa !79
  %5 = load ptr, ptr %3, align 8, !tbaa !26
  %6 = load ptr, ptr %4, align 8, !tbaa !79
  %7 = load double, ptr %6, align 8, !tbaa !63
  %8 = call noundef float @"_ZZN19OpenColorIO_v2_5dev11ADX_to_ACES11GenerateOpsERNS_10OpRcPtrVecEENK3$_0clEd"(ptr noundef nonnull align 1 dereferenceable(1) %5, double noundef %7)
  ret float %8
}

; Function Attrs: mustprogress nounwind uwtable
define internal noundef nonnull align 1 dereferenceable(1) ptr @"_ZNKSt9_Any_data9_M_accessIZN19OpenColorIO_v2_5dev11ADX_to_ACES11GenerateOpsERNS1_10OpRcPtrVecEE3$_0EERKT_v"(ptr noundef nonnull align 8 dereferenceable(16) %0) #6 align 2 {
  %2 = alloca ptr, align 8
  store ptr %0, ptr %2, align 8, !tbaa !170
  %3 = load ptr, ptr %2, align 8
  %4 = call noundef ptr @_ZNKSt9_Any_data9_M_accessEv(ptr noundef nonnull align 8 dereferenceable(16) %3) #3
  ret ptr %4
}

; Function Attrs: mustprogress uwtable
define internal noundef float @"_ZSt10__invoke_rIfRZN19OpenColorIO_v2_5dev11ADX_to_ACES11GenerateOpsERNS0_10OpRcPtrVecEE3$_0JdEENSt9enable_ifIXsr6__and_ISt6__not_ISt7is_voidIT_EESt14is_convertibleINSt15__invoke_resultIT0_JDpT1_EE4typeES9_EEE5valueES9_E4typeEOSE_DpOSF_"(ptr noundef nonnull align 1 dereferenceable(1) %0, ptr noundef nonnull align 8 dereferenceable(8) %1) #4 {
  %3 = alloca ptr, align 8
  %4 = alloca ptr, align 8
  store ptr %0, ptr %3, align 8, !tbaa !26
  store ptr %1, ptr %4, align 8, !tbaa !79
  %5 = load ptr, ptr %3, align 8, !tbaa !26
  %6 = load ptr, ptr %4, align 8, !tbaa !79
  %7 = call noundef float @"_ZSt13__invoke_implIfRZN19OpenColorIO_v2_5dev11ADX_to_ACES11GenerateOpsERNS0_10OpRcPtrVecEE3$_0JdEET_St14__invoke_otherOT0_DpOT1_"(ptr noundef nonnull align 1 dereferenceable(1) %5, ptr noundef nonnull align 8 dereferenceable(8) %6)
  ret float %7
}

; Function Attrs: mustprogress nounwind uwtable
define internal noundef ptr @"_ZNSt14_Function_base13_Base_managerIZN19OpenColorIO_v2_5dev11ADX_to_ACES11GenerateOpsERNS1_10OpRcPtrVecEE3$_0E14_M_get_pointerERKSt9_Any_data"(ptr noundef nonnull align 8 dereferenceable(16) %0) #6 align 2 {
  %2 = alloca ptr, align 8
  %3 = alloca ptr, align 8
  store ptr %0, ptr %2, align 8, !tbaa !170
  call void @llvm.lifetime.start.p0(i64 8, ptr %3) #3
  %4 = load ptr, ptr %2, align 8, !tbaa !170
  %5 = call noundef nonnull align 1 dereferenceable(1) ptr @"_ZNKSt9_Any_data9_M_accessIZN19OpenColorIO_v2_5dev11ADX_to_ACES11GenerateOpsERNS1_10OpRcPtrVecEE3$_0EERKT_v"(ptr noundef nonnull align 8 dereferenceable(16) %4) #3
  store ptr %5, ptr %3, align 8, !tbaa !26
  %6 = load ptr, ptr %3, align 8, !tbaa !26
  call void @llvm.lifetime.end.p0(i64 8, ptr %3) #3
  ret ptr %6
}

; Function Attrs: mustprogress uwtable
define internal noundef float @"_ZNSt17_Function_handlerIFfdEZN19OpenColorIO_v2_5dev11ADX_to_ACES11GenerateOpsERNS1_10OpRcPtrVecEE3$_0E9_M_invokeERKSt9_Any_dataOd"(ptr noundef nonnull align 8 dereferenceable(16) %0, ptr noundef nonnull align 8 dereferenceable(8) %1) #4 align 2 {
  %3 = alloca ptr, align 8
  %4 = alloca ptr, align 8
  store ptr %0, ptr %3, align 8, !tbaa !170
  store ptr %1, ptr %4, align 8, !tbaa !79
  %5 = load ptr, ptr %3, align 8, !tbaa !170
  %6 = call noundef ptr @"_ZNSt14_Function_base13_Base_managerIZN19OpenColorIO_v2_5dev11ADX_to_ACES11GenerateOpsERNS1_10OpRcPtrVecEE3$_0E14_M_get_pointerERKSt9_Any_data"(ptr noundef nonnull align 8 dereferenceable(16) %5) #3
  %7 = load ptr, ptr %4, align 8, !tbaa !79
  %8 = call noundef float @"_ZSt10__invoke_rIfRZN19OpenColorIO_v2_5dev11ADX_to_ACES11GenerateOpsERNS0_10OpRcPtrVecEE3$_0JdEENSt9enable_ifIXsr6__and_ISt6__not_ISt7is_voidIT_EESt14is_convertibleINSt15__invoke_resultIT0_JDpT1_EE4typeES9_EEE5valueES9_E4typeEOSE_DpOSF_"(ptr noundef nonnull align 1 dereferenceable(1) %6, ptr noundef nonnull align 8 dereferenceable(8) %7)
  ret float %8
}