; Function Attrs: mustprogress uwtable
define internal noundef float @"_ZNSt17_Function_handlerIFfdEZN19OpenColorIO_v2_5dev11ADX_to_ACES11GenerateOpsERNS1_10OpRcPtrVecEE3$_0E9_M_invokeERKSt9_Any_dataOd"(ptr nonnull readnone align 8 captures(none) %0, ptr noundef nonnull readonly align 8 captures(none) dereferenceable(8) %1) #3 align 2 {
  %.val = load double, ptr %1, align 8, !tbaa !65
  %3 = fcmp olt double %.val, -1.900000e-01
  br i1 %3, label %4, label %8

4:                                                ; preds = %2
  %5 = fsub double -1.900000e-01, %.val
  %6 = tail call double @llvm.fmuladd.f64(double %5, double 0xC03064333C020ECD, double -6.000000e+00)
  %7 = fcmp olt double %6, -1.000000e+01
  %.0.i.i.i = select i1 %7, double -1.000000e+01, double %6
  br label %"_ZSt10__invoke_rIfRZN19OpenColorIO_v2_5dev11ADX_to_ACES11GenerateOpsERNS0_10OpRcPtrVecEE3$_0JdEENSt9enable_ifIXsr6__and_ISt6__not_ISt7is_voidIT_EESt14is_convertibleINSt15__invoke_resultIT0_JDpT1_EE4typeES9_EEE5valueES9_E4typeEOSE_DpOSF_.exit"

8:                                                ; preds = %2
  %9 = fcmp ugt double %.val, 6.000000e-01
  br i1 %9, label %12, label %10

10:                                               ; preds = %8
  %11 = tail call noundef double @_ZN19OpenColorIO_v2_5dev13Interpolate1DEjPKdd(i32 noundef 11, ptr noundef nonnull @_ZN19OpenColorIO_v2_5dev11ADX_to_ACESL14nonuniform_LUTE, double noundef %.val)
  br label %"_ZSt10__invoke_rIfRZN19OpenColorIO_v2_5dev11ADX_to_ACES11GenerateOpsERNS0_10OpRcPtrVecEE3$_0JdEENSt9enable_ifIXsr6__and_ISt6__not_ISt7is_voidIT_EESt14is_convertibleINSt15__invoke_resultIT0_JDpT1_EE4typeES9_EEE5valueES9_E4typeEOSE_DpOSF_.exit"

12:                                               ; preds = %8
  %13 = tail call double @llvm.fmuladd.f64(double %.val, double 0x3FFD1745D1745D17, double 0xC00023BF5340D570)
  %14 = fcmp ogt double %13, 0x401343DBB4C71C8A
  %.2.i.i.i = select i1 %14, double 0x401343DBB4C71C8A, double %13
  br label %"_ZSt10__invoke_rIfRZN19OpenColorIO_v2_5dev11ADX_to_ACES11GenerateOpsERNS0_10OpRcPtrVecEE3$_0JdEENSt9enable_ifIXsr6__and_ISt6__not_ISt7is_voidIT_EESt14is_convertibleINSt15__invoke_resultIT0_JDpT1_EE4typeES9_EEE5valueES9_E4typeEOSE_DpOSF_.exit"

"_ZSt10__invoke_rIfRZN19OpenColorIO_v2_5dev11ADX_to_ACES11GenerateOpsERNS0_10OpRcPtrVecEE3$_0JdEENSt9enable_ifIXsr6__and_ISt6__not_ISt7is_voidIT_EESt14is_convertibleINSt15__invoke_resultIT0_JDpT1_EE4typeES9_EEE5valueES9_E4typeEOSE_DpOSF_.exit": ; preds = %4, %10, %12
  %.1.i.i.i = phi double [ %.0.i.i.i, %4 ], [ %11, %10 ], [ %.2.i.i.i, %12 ]
  %15 = fptrunc double %.1.i.i.i to float
  ret float %15
}